target datalayout = "e-m:e-p270:32:32-p271:32:32-p272:64:64-i64:64-i128:128-f80:128-n8:16:32:64-S128"
target triple = "x86_64-pc-linux-gnu"

@.str.105 = private unnamed_addr constant [9 x i8] c"<reply> \00", align 1

; Function Attrs: nounwind uwtable
define dso_local void @ldbLogRedisReply(ptr noundef %0) #0 {
  %2 = alloca ptr, align 8
  %3 = alloca ptr, align 8
  store ptr %0, ptr %2, align 8, !tbaa !16
  call void @llvm.lifetime.start.p0(i64 8, ptr %3) #14
  %4 = call ptr @sdsnew(ptr noundef @.str.105)
  store ptr %4, ptr %3, align 8, !tbaa !16
  %5 = load ptr, ptr %2, align 8, !tbaa !16
  %6 = call ptr @ldbRedisProtocolToHuman(ptr noundef %3, ptr noundef %5)
  %7 = load ptr, ptr %3, align 8, !tbaa !16
  call void @ldbLogWithMaxLen(ptr noundef %7)
  call void @llvm.lifetime.end.p0(i64 8, ptr %3) #14
  ret void
}