; Function Attrs: nounwind uwtable
define dso_local void @ldbLogRedisReply(ptr noundef %0) local_unnamed_addr #0 {
  %2 = alloca ptr, align 8
  call void @llvm.lifetime.start.p0(i64 8, ptr nonnull %2) #19
  %3 = tail call ptr @sdsnew(ptr noundef nonnull @.str.105) #19
  store ptr %3, ptr %2, align 8, !tbaa !92
  %4 = call ptr @ldbRedisProtocolToHuman(ptr noundef nonnull %2, ptr noundef %0)
  %5 = load ptr, ptr %2, align 8, !tbaa !92
  tail call void @ldbLogWithMaxLen(ptr noundef %5)
  call void @llvm.lifetime.end.p0(i64 8, ptr nonnull %2) #19
  ret void
}